Certificate:
    Data:
        Version: 3 (0x2)
        Serial Number: 56 (0x38)
        Signature Algorithm: sha1WithRSAEncryption
        Issuer: C=US, O=Avaya Inc., OU=SIP Product Certificate Authority, CN=SIP Product Certificate Authority
        Validity
            Not Before: Nov 18 23:50:21 2011 GMT
            Not After : Nov 15 23:50:21 2021 GMT
        Subject: C=US, O=Avaya Inc., OU=Sipera, CN=Avaya SBC Edge
        Subject Public Key Info:
            Public Key Algorithm: rsaEncryption
            RSA Public Key: (1024 bit)
                Modulus (1024 bit):
                    00:c9:c8:74:7f:91:3e:b0:3b:8e:c1:de:cd:8a:bd:
                    49:02:15:04:a5:db:02:40:8b:6f:77:ce:1f:af:22:
                    e3:1d:76:3f:14:1c:82:19:c1:20:74:0f:ff:0d:06:
                    cf:06:e7:16:5a:2f:99:4b:53:0a:c5:9a:3a:c9:c3:
                    74:7e:ac:2f:21:d4:21:1f:04:4d:29:25:33:46:8a:
                    72:93:a1:19:21:af:bf:5b:a8:a7:8b:ad:0b:b3:32:
                    82:30:c9:e5:da:90:a6:47:98:be:04:26:63:8c:4f:
                    e0:0d:d1:93:17:fe:83:30:dd:5c:71:46:77:cb:fb:
                    89:63:07:9c:69:a5:0f:fc:a3
                Exponent: 65537 (0x10001)
        X509v3 extensions:
            X509v3 Basic Constraints: 
                CA:FALSE
            Netscape Cert Type: 
                SSL Client, SSL Server
            Netscape Comment: 
                OpenSSL Generated Certificate
            X509v3 Subject Key Identifier: 
                99:9A:AE:00:91:A8:49:57:09:DF:0A:A2:63:42:54:D9:F9:2D:5A:88
            X509v3 Authority Key Identifier: 
                keyid:A0:82:07:29:5C:3A:A0:C4:29:B8:3D:C3:1D:B9:06:55:13:BE:56:2A
                DirName:/C=US/O=Avaya Inc./OU=SIP Product Certificate Authority/CN=SIP Product Certificate Authority
                serial:00

            X509v3 Certificate Policies: 
                Policy: 2.16.840.1.114187.7.2.1.1
                  CPS: mailto:sipca@avaya.com;

            X509v3 Key Usage: 
                Digital Signature, Non Repudiation, Key Encipherment
    Signature Algorithm: sha1WithRSAEncryption
        7e:fd:55:ab:d5:e9:bd:9e:cf:a5:32:9d:b1:05:67:ab:77:a9:
        2c:63:70:66:fc:d5:fc:53:2b:c9:cf:d2:2e:1c:00:50:ce:2c:
        de:7c:dc:2c:41:08:85:ef:da:45:58:97:9d:c9:fe:17:83:74:
        4d:23:3e:ac:d8:41:b9:df:6e:93:fa:c6:08:1d:5a:95:d5:09:
        c3:c7:20:32:3b:36:f9:ab:4f:ed:b7:b5:10:57:05:b8:a9:c7:
        d7:ab:2b:9a:98:78:d2:2d:7b:55:61:ce:67:1e:ce:28:09:56:
        7d:c1:db:54:53:7e:de:5c:a8:77:3e:98:e8:fe:33:88:38:a7:
        1d:eb:65:25:76:49:c6:c7:24:c0:3d:8c:f3:bf:82:c5:8d:84:
        93:2e:8a:23:36:20:87:f6:58:9d:a4:ca:cc:06:c8:72:45:c4:
        6a:81:4a:d2:be:d6:b9:9c:0e:04:19:c8:9d:0d:95:5f:9e:b3:
        c7:7e:ea:09:9b:30:ec:15:ad:31:11:11:bd:90:26:1f:39:3d:
        29:ca:37:3b:1d:b2:4b:86:8f:82:70:25:e4:ff:b3:1a:3c:9b:
        28:a9:10:a3:85:91:d2:75:35:61:ca:4b:67:d9:25:0e:f9:69:
        62:60:b3:7d:67:37:f9:64:3c:27:ee:76:46:38:fe:be:98:35:
        24:82:2f:c4
-----BEGIN CERTIFICATE-----
MIIEIzCCAwugAwIBAgIBODANBgkqhkiG9w0BAQUFADB6MQswCQYDVQQGEwJVUzET
MBEGA1UEChMKQXZheWEgSW5jLjEqMCgGA1UECxMhU0lQIFByb2R1Y3QgQ2VydGlm
aWNhdGUgQXV0aG9yaXR5MSowKAYDVQQDEyFTSVAgUHJvZHVjdCBDZXJ0aWZpY2F0
ZSBBdXRob3JpdHkwHhcNMTExMTE4MjM1MDIxWhcNMjExMTE1MjM1MDIxWjBMMQsw
CQYDVQQGEwJVUzETMBEGA1UEChMKQXZheWEgSW5jLjEPMA0GA1UECxMGU2lwZXJh
MRcwFQYDVQQDEw5BdmF5YSBTQkMgRWRnZTCBnzANBgkqhkiG9w0BAQEFAAOBjQAw
gYkCgYEAych0f5E+sDuOwd7Nir1JAhUEpdsCQItvd84fryLjHXY/FByCGcEgdA//
DQbPBucWWi+ZS1MKxZo6ycN0fqwvIdQhHwRNKSUzRopyk6EZIa+/W6ini60LszKC
MMnl2pCmR5i+BCZjjE/gDdGTF/6DMN1ccUZ3y/uJYwecaaUP/KMCAwEAAaOCAWQw
ggFgMAkGA1UdEwQCMAAwEQYJYIZIAYb4QgEBBAQDAgbAMCwGCWCGSAGG+EIBDQQf
Fh1PcGVuU1NMIEdlbmVyYXRlZCBDZXJ0aWZpY2F0ZTAdBgNVHQ4EFgQUmZquAJGo
SVcJ3wqiY0JU2fktWogwgaQGA1UdIwSBnDCBmYAUoIIHKVw6oMQpuD3DHbkGVRO+
ViqhfqR8MHoxCzAJBgNVBAYTAlVTMRMwEQYDVQQKEwpBdmF5YSBJbmMuMSowKAYD
VQQLEyFTSVAgUHJvZHVjdCBDZXJ0aWZpY2F0ZSBBdXRob3JpdHkxKjAoBgNVBAMT
IVNJUCBQcm9kdWN0IENlcnRpZmljYXRlIEF1dGhvcml0eYIBADA/BgNVHSAEODA2
MDQGC2CGSAGG/AsHAgEBMCUwIwYIKwYBBQUHAgEWF21haWx0bzpzaXBjYUBhdmF5
YS5jb207MAsGA1UdDwQEAwIF4DANBgkqhkiG9w0BAQUFAAOCAQEAfv1Vq9XpvZ7P
pTKdsQVnq3epLGNwZvzV/FMryc/SLhwAUM4s3nzcLEEIhe/aRViXncn+F4N0TSM+
rNhBud9uk/rGCB1aldUJw8cgMjs2+atP7be1EFcFuKnH16srmph40i17VWHOZx7O
KAlWfcHbVFN+3lyodz6Y6P4ziDinHetlJXZJxsckwD2M87+CxY2Eky6KIzYgh/ZY
naTKzAbIckXEaoFK0r7WuZwOBBnInQ2VX56zx37qCZsw7BWtMRERvZAmHzk9Kco3
Ox2yS4aPgnAl5P+zGjybKKkQo4WR0nU1YcpLZ9klDvlpYmCzfWc3+WQ8J+52Rjj+
vpg1JIIvxA==
-----END CERTIFICATE-----
